target datalayout = "e-m:e-p270:32:32-p271:32:32-p272:64:64-i64:64-i128:128-f80:128-n8:16:32:64-S128"
target triple = "x86_64-pc-linux-gnu"

; Function Attrs: inlinehint nounwind uwtable
define internal i32 @Extra_TruthWordNum(i32 noundef %0) #2 {
  %2 = alloca i32, align 4
  store i32 %0, ptr %2, align 4, !tbaa !3
  %3 = load i32, ptr %2, align 4, !tbaa !3
  %4 = icmp sle i32 %3, 5
  br i1 %4, label %5, label %6

5:                                                ; preds = %1
  br label %10

6:                                                ; preds = %1
  %7 = load i32, ptr %2, align 4, !tbaa !3
  %8 = sub nsw i32 %7, 5
  %9 = shl i32 1, %8
  br label %10

10:                                               ; preds = %6, %5
  %11 = phi i32 [ 1, %5 ], [ %9, %6 ]
  ret i32 %11
}

; Function Attrs: nounwind uwtable
define void @Extra_TruthCofactor1(ptr noundef %0, i32 noundef %1, i32 noundef %2) #0 {
  %4 = alloca ptr, align 8
  %5 = alloca i32, align 4
  %6 = alloca i32, align 4
  %7 = alloca i32, align 4
  %8 = alloca i32, align 4
  %9 = alloca i32, align 4
  %10 = alloca i32, align 4
  %11 = alloca i32, align 4
  store ptr %0, ptr %4, align 8, !tbaa !10
  store i32 %1, ptr %5, align 4, !tbaa !3
  store i32 %2, ptr %6, align 4, !tbaa !3
  call void @llvm.lifetime.start.p0(i64 4, ptr %7) #5
  %12 = load i32, ptr %5, align 4, !tbaa !3
  %13 = call i32 @Extra_TruthWordNum(i32 noundef %12)
  store i32 %13, ptr %7, align 4, !tbaa !3
  call void @llvm.lifetime.start.p0(i64 4, ptr %8) #5
  call void @llvm.lifetime.start.p0(i64 4, ptr %9) #5
  call void @llvm.lifetime.start.p0(i64 4, ptr %10) #5
  %14 = load i32, ptr %6, align 4, !tbaa !3
  switch i32 %14, label %155 [
    i32 0, label %15
    i32 1, label %43
    i32 2, label %71
    i32 3, label %99
    i32 4, label %127
  ]

15:                                               ; preds = %3
  store i32 0, ptr %8, align 4, !tbaa !3
  br label %16

16:                                               ; preds = %39, %15
  %17 = load i32, ptr %8, align 4, !tbaa !3
  %18 = load i32, ptr %7, align 4, !tbaa !3
  %19 = icmp slt i32 %17, %18
  br i1 %19, label %20, label %42

20:                                               ; preds = %16
  %21 = load ptr, ptr %4, align 8, !tbaa !10
  %22 = load i32, ptr %8, align 4, !tbaa !3
  %23 = sext i32 %22 to i64
  %24 = getelementptr inbounds i32, ptr %21, i64 %23
  %25 = load i32, ptr %24, align 4, !tbaa !3
  %26 = and i32 %25, -1431655766
  %27 = load ptr, ptr %4, align 8, !tbaa !10
  %28 = load i32, ptr %8, align 4, !tbaa !3
  %29 = sext i32 %28 to i64
  %30 = getelementptr inbounds i32, ptr %27, i64 %29
  %31 = load i32, ptr %30, align 4, !tbaa !3
  %32 = and i32 %31, -1431655766
  %33 = lshr i32 %32, 1
  %34 = or i32 %26, %33
  %35 = load ptr, ptr %4, align 8, !tbaa !10
  %36 = load i32, ptr %8, align 4, !tbaa !3
  %37 = sext i32 %36 to i64
  %38 = getelementptr inbounds i32, ptr %35, i64 %37
  store i32 %34, ptr %38, align 4, !tbaa !3
  br label %39

39:                                               ; preds = %20
  %40 = load i32, ptr %8, align 4, !tbaa !3
  %41 = add nsw i32 %40, 1
  store i32 %41, ptr %8, align 4, !tbaa !3
  br label %16, !llvm.loop !47

42:                                               ; preds = %16
  store i32 1, ptr %11, align 4
  br label %195

43:                                               ; preds = %3
  store i32 0, ptr %8, align 4, !tbaa !3
  br label %44

44:                                               ; preds = %67, %43
  %45 = load i32, ptr %8, align 4, !tbaa !3
  %46 = load i32, ptr %7, align 4, !tbaa !3
  %47 = icmp slt i32 %45, %46
  br i1 %47, label %48, label %70

48:                                               ; preds = %44
  %49 = load ptr, ptr %4, align 8, !tbaa !10
  %50 = load i32, ptr %8, align 4, !tbaa !3
  %51 = sext i32 %50 to i64
  %52 = getelementptr inbounds i32, ptr %49, i64 %51
  %53 = load i32, ptr %52, align 4, !tbaa !3
  %54 = and i32 %53, -858993460
  %55 = load ptr, ptr %4, align 8, !tbaa !10
  %56 = load i32, ptr %8, align 4, !tbaa !3
  %57 = sext i32 %56 to i64
  %58 = getelementptr inbounds i32, ptr %55, i64 %57
  %59 = load i32, ptr %58, align 4, !tbaa !3
  %60 = and i32 %59, -858993460
  %61 = lshr i32 %60, 2
  %62 = or i32 %54, %61
  %63 = load ptr, ptr %4, align 8, !tbaa !10
  %64 = load i32, ptr %8, align 4, !tbaa !3
  %65 = sext i32 %64 to i64
  %66 = getelementptr inbounds i32, ptr %63, i64 %65
  store i32 %62, ptr %66, align 4, !tbaa !3
  br label %67

67:                                               ; preds = %48
  %68 = load i32, ptr %8, align 4, !tbaa !3
  %69 = add nsw i32 %68, 1
  store i32 %69, ptr %8, align 4, !tbaa !3
  br label %44, !llvm.loop !48

70:                                               ; preds = %44
  store i32 1, ptr %11, align 4
  br label %195

71:                                               ; preds = %3
  store i32 0, ptr %8, align 4, !tbaa !3
  br label %72

72:                                               ; preds = %95, %71
  %73 = load i32, ptr %8, align 4, !tbaa !3
  %74 = load i32, ptr %7, align 4, !tbaa !3
  %75 = icmp slt i32 %73, %74
  br i1 %75, label %76, label %98

76:                                               ; preds = %72
  %77 = load ptr, ptr %4, align 8, !tbaa !10
  %78 = load i32, ptr %8, align 4, !tbaa !3
  %79 = sext i32 %78 to i64
  %80 = getelementptr inbounds i32, ptr %77, i64 %79
  %81 = load i32, ptr %80, align 4, !tbaa !3
  %82 = and i32 %81, -252645136
  %83 = load ptr, ptr %4, align 8, !tbaa !10
  %84 = load i32, ptr %8, align 4, !tbaa !3
  %85 = sext i32 %84 to i64
  %86 = getelementptr inbounds i32, ptr %83, i64 %85
  %87 = load i32, ptr %86, align 4, !tbaa !3
  %88 = and i32 %87, -252645136
  %89 = lshr i32 %88, 4
  %90 = or i32 %82, %89
  %91 = load ptr, ptr %4, align 8, !tbaa !10
  %92 = load i32, ptr %8, align 4, !tbaa !3
  %93 = sext i32 %92 to i64
  %94 = getelementptr inbounds i32, ptr %91, i64 %93
  store i32 %90, ptr %94, align 4, !tbaa !3
  br label %95

95:                                               ; preds = %76
  %96 = load i32, ptr %8, align 4, !tbaa !3
  %97 = add nsw i32 %96, 1
  store i32 %97, ptr %8, align 4, !tbaa !3
  br label %72, !llvm.loop !49

98:                                               ; preds = %72
  store i32 1, ptr %11, align 4
  br label %195

99:                                               ; preds = %3
  store i32 0, ptr %8, align 4, !tbaa !3
  br label %100

100:                                              ; preds = %123, %99
  %101 = load i32, ptr %8, align 4, !tbaa !3
  %102 = load i32, ptr %7, align 4, !tbaa !3
  %103 = icmp slt i32 %101, %102
  br i1 %103, label %104, label %126

104:                                              ; preds = %100
  %105 = load ptr, ptr %4, align 8, !tbaa !10
  %106 = load i32, ptr %8, align 4, !tbaa !3
  %107 = sext i32 %106 to i64
  %108 = getelementptr inbounds i32, ptr %105, i64 %107
  %109 = load i32, ptr %108, align 4, !tbaa !3
  %110 = and i32 %109, -16711936
  %111 = load ptr, ptr %4, align 8, !tbaa !10
  %112 = load i32, ptr %8, align 4, !tbaa !3
  %113 = sext i32 %112 to i64
  %114 = getelementptr inbounds i32, ptr %111, i64 %113
  %115 = load i32, ptr %114, align 4, !tbaa !3
  %116 = and i32 %115, -16711936
  %117 = lshr i32 %116, 8
  %118 = or i32 %110, %117
  %119 = load ptr, ptr %4, align 8, !tbaa !10
  %120 = load i32, ptr %8, align 4, !tbaa !3
  %121 = sext i32 %120 to i64
  %122 = getelementptr inbounds i32, ptr %119, i64 %121
  store i32 %118, ptr %122, align 4, !tbaa !3
  br label %123

123:                                              ; preds = %104
  %124 = load i32, ptr %8, align 4, !tbaa !3
  %125 = add nsw i32 %124, 1
  store i32 %125, ptr %8, align 4, !tbaa !3
  br label %100, !llvm.loop !50

126:                                              ; preds = %100
  store i32 1, ptr %11, align 4
  br label %195

127:                                              ; preds = %3
  store i32 0, ptr %8, align 4, !tbaa !3
  br label %128

128:                                              ; preds = %151, %127
  %129 = load i32, ptr %8, align 4, !tbaa !3
  %130 = load i32, ptr %7, align 4, !tbaa !3
  %131 = icmp slt i32 %129, %130
  br i1 %131, label %132, label %154

132:                                              ; preds = %128
  %133 = load ptr, ptr %4, align 8, !tbaa !10
  %134 = load i32, ptr %8, align 4, !tbaa !3
  %135 = sext i32 %134 to i64
  %136 = getelementptr inbounds i32, ptr %133, i64 %135
  %137 = load i32, ptr %136, align 4, !tbaa !3
  %138 = and i32 %137, -65536
  %139 = load ptr, ptr %4, align 8, !tbaa !10
  %140 = load i32, ptr %8, align 4, !tbaa !3
  %141 = sext i32 %140 to i64
  %142 = getelementptr inbounds i32, ptr %139, i64 %141
  %143 = load i32, ptr %142, align 4, !tbaa !3
  %144 = and i32 %143, -65536
  %145 = lshr i32 %144, 16
  %146 = or i32 %138, %145
  %147 = load ptr, ptr %4, align 8, !tbaa !10
  %148 = load i32, ptr %8, align 4, !tbaa !3
  %149 = sext i32 %148 to i64
  %150 = getelementptr inbounds i32, ptr %147, i64 %149
  store i32 %146, ptr %150, align 4, !tbaa !3
  br label %151

151:                                              ; preds = %132
  %152 = load i32, ptr %8, align 4, !tbaa !3
  %153 = add nsw i32 %152, 1
  store i32 %153, ptr %8, align 4, !tbaa !3
  br label %128, !llvm.loop !51

154:                                              ; preds = %128
  store i32 1, ptr %11, align 4
  br label %195

155:                                              ; preds = %3
  %156 = load i32, ptr %6, align 4, !tbaa !3
  %157 = sub nsw i32 %156, 5
  %158 = shl i32 1, %157
  store i32 %158, ptr %10, align 4, !tbaa !3
  store i32 0, ptr %9, align 4, !tbaa !3
  br label %159

159:                                              ; preds = %189, %155
  %160 = load i32, ptr %9, align 4, !tbaa !3
  %161 = load i32, ptr %7, align 4, !tbaa !3
  %162 = icmp slt i32 %160, %161
  br i1 %162, label %163, label %194

163:                                              ; preds = %159
  store i32 0, ptr %8, align 4, !tbaa !3
  br label %164

164:                                              ; preds = %180, %163
  %165 = load i32, ptr %8, align 4, !tbaa !3
  %166 = load i32, ptr %10, align 4, !tbaa !3
  %167 = icmp slt i32 %165, %166
  br i1 %167, label %168, label %183

168:                                              ; preds = %164
  %169 = load ptr, ptr %4, align 8, !tbaa !10
  %170 = load i32, ptr %10, align 4, !tbaa !3
  %171 = load i32, ptr %8, align 4, !tbaa !3
  %172 = add nsw i32 %170, %171
  %173 = sext i32 %172 to i64
  %174 = getelementptr inbounds i32, ptr %169, i64 %173
  %175 = load i32, ptr %174, align 4, !tbaa !3
  %176 = load ptr, ptr %4, align 8, !tbaa !10
  %177 = load i32, ptr %8, align 4, !tbaa !3
  %178 = sext i32 %177 to i64
  %179 = getelementptr inbounds i32, ptr %176, i64 %178
  store i32 %175, ptr %179, align 4, !tbaa !3
  br label %180

180:                                              ; preds = %168
  %181 = load i32, ptr %8, align 4, !tbaa !3
  %182 = add nsw i32 %181, 1
  store i32 %182, ptr %8, align 4, !tbaa !3
  br label %164, !llvm.loop !52

183:                                              ; preds = %164
  %184 = load i32, ptr %10, align 4, !tbaa !3
  %185 = mul nsw i32 2, %184
  %186 = load ptr, ptr %4, align 8, !tbaa !10
  %187 = sext i32 %185 to i64
  %188 = getelementptr inbounds i32, ptr %186, i64 %187
  store ptr %188, ptr %4, align 8, !tbaa !10
  br label %189

189:                                              ; preds = %183
  %190 = load i32, ptr %10, align 4, !tbaa !3
  %191 = mul nsw i32 2, %190
  %192 = load i32, ptr %9, align 4, !tbaa !3
  %193 = add nsw i32 %192, %191
  store i32 %193, ptr %9, align 4, !tbaa !3
  br label %159, !llvm.loop !53

194:                                              ; preds = %159
  store i32 1, ptr %11, align 4
  br label %195

195:                                              ; preds = %194, %154, %126, %98, %70, %42
  call void @llvm.lifetime.end.p0(i64 4, ptr %10) #5
  call void @llvm.lifetime.end.p0(i64 4, ptr %9) #5
  call void @llvm.lifetime.end.p0(i64 4, ptr %8) #5
  call void @llvm.lifetime.end.p0(i64 4, ptr %7) #5
  ret void
}